target datalayout = "e-m:e-p270:32:32-p271:32:32-p272:64:64-i64:64-i128:128-f80:128-n8:16:32:64-S128"
target triple = "x86_64-pc-linux-gnu"

@.str.29 = private unnamed_addr constant [1 x i8] zeroinitializer, align 1
@git_gettext_enabled = external global i32, align 4
@.str.200 = private unnamed_addr constant [10 x i8] c"new file:\00", align 1
@.str.201 = private unnamed_addr constant [8 x i8] c"copied:\00", align 1
@.str.202 = private unnamed_addr constant [9 x i8] c"deleted:\00", align 1
@.str.203 = private unnamed_addr constant [10 x i8] c"modified:\00", align 1
@.str.204 = private unnamed_addr constant [9 x i8] c"renamed:\00", align 1
@.str.205 = private unnamed_addr constant [12 x i8] c"typechange:\00", align 1
@.str.206 = private unnamed_addr constant [9 x i8] c"unknown:\00", align 1
@.str.207 = private unnamed_addr constant [10 x i8] c"unmerged:\00", align 1

; Function Attrs: inlinehint nounwind uwtable
define internal ptr @_(ptr noundef %0) #8 {
  %2 = alloca ptr, align 8
  %3 = alloca ptr, align 8
  store ptr %0, ptr %3, align 8, !tbaa !9
  %4 = load ptr, ptr %3, align 8, !tbaa !9
  %5 = load i8, ptr %4, align 1, !tbaa !30
  %6 = icmp ne i8 %5, 0
  br i1 %6, label %8, label %7

7:                                                ; preds = %1
  store ptr @.str.29, ptr %2, align 8
  br label %16

8:                                                ; preds = %1
  %9 = load i32, ptr @git_gettext_enabled, align 4, !tbaa !11
  %10 = icmp ne i32 %9, 0
  br i1 %10, label %13, label %11

11:                                               ; preds = %8
  %12 = load ptr, ptr %3, align 8, !tbaa !9
  store ptr %12, ptr %2, align 8
  br label %16

13:                                               ; preds = %8
  %14 = load ptr, ptr %3, align 8, !tbaa !9
  %15 = call ptr @dcgettext(ptr noundef null, ptr noundef %14, i32 noundef 5) #12
  store ptr %15, ptr %2, align 8
  br label %16

16:                                               ; preds = %13, %11, %7
  %17 = load ptr, ptr %2, align 8
  ret ptr %17
}

; Function Attrs: nounwind uwtable
define internal ptr @wt_status_diff_status_string(i32 noundef %0) #0 {
  %2 = alloca ptr, align 8
  %3 = alloca i32, align 4
  store i32 %0, ptr %3, align 4, !tbaa !11
  %4 = load i32, ptr %3, align 4, !tbaa !11
  switch i32 %4, label %21 [
    i32 65, label %5
    i32 67, label %7
    i32 68, label %9
    i32 77, label %11
    i32 82, label %13
    i32 84, label %15
    i32 88, label %17
    i32 85, label %19
  ]

5:                                                ; preds = %1
  %6 = call ptr @_(ptr noundef @.str.200)
  store ptr %6, ptr %2, align 8
  br label %22

7:                                                ; preds = %1
  %8 = call ptr @_(ptr noundef @.str.201)
  store ptr %8, ptr %2, align 8
  br label %22

9:                                                ; preds = %1
  %10 = call ptr @_(ptr noundef @.str.202)
  store ptr %10, ptr %2, align 8
  br label %22

11:                                               ; preds = %1
  %12 = call ptr @_(ptr noundef @.str.203)
  store ptr %12, ptr %2, align 8
  br label %22

13:                                               ; preds = %1
  %14 = call ptr @_(ptr noundef @.str.204)
  store ptr %14, ptr %2, align 8
  br label %22

15:                                               ; preds = %1
  %16 = call ptr @_(ptr noundef @.str.205)
  store ptr %16, ptr %2, align 8
  br label %22

17:                                               ; preds = %1
  %18 = call ptr @_(ptr noundef @.str.206)
  store ptr %18, ptr %2, align 8
  br label %22

19:                                               ; preds = %1
  %20 = call ptr @_(ptr noundef @.str.207)
  store ptr %20, ptr %2, align 8
  br label %22

21:                                               ; preds = %1
  store ptr null, ptr %2, align 8
  br label %22

22:                                               ; preds = %21, %19, %17, %15, %13, %11, %9, %7, %5
  %23 = load ptr, ptr %2, align 8
  ret ptr %23
}