; Function Attrs: nounwind uwtable
define internal fastcc ptr @wt_status_diff_status_string(i32 noundef %0) unnamed_addr #0 {
  switch i32 %0, label %_.exit [
    i32 65, label %2
    i32 67, label %4
    i32 68, label %6
    i32 77, label %8
    i32 82, label %10
    i32 84, label %12
    i32 88, label %14
    i32 85, label %16
  ]

2:                                                ; preds = %1
  %3 = load i32, ptr @git_gettext_enabled, align 4, !tbaa !128
  %.not4.i = icmp eq i32 %3, 0
  br i1 %.not4.i, label %_.exit, label %_.exit.sink.split

4:                                                ; preds = %1
  %5 = load i32, ptr @git_gettext_enabled, align 4, !tbaa !128
  %.not4.i1 = icmp eq i32 %5, 0
  br i1 %.not4.i1, label %_.exit, label %_.exit.sink.split

6:                                                ; preds = %1
  %7 = load i32, ptr @git_gettext_enabled, align 4, !tbaa !128
  %.not4.i4 = icmp eq i32 %7, 0
  br i1 %.not4.i4, label %_.exit, label %_.exit.sink.split

8:                                                ; preds = %1
  %9 = load i32, ptr @git_gettext_enabled, align 4, !tbaa !128
  %.not4.i7 = icmp eq i32 %9, 0
  br i1 %.not4.i7, label %_.exit, label %_.exit.sink.split

10:                                               ; preds = %1
  %11 = load i32, ptr @git_gettext_enabled, align 4, !tbaa !128
  %.not4.i10 = icmp eq i32 %11, 0
  br i1 %.not4.i10, label %_.exit, label %_.exit.sink.split

12:                                               ; preds = %1
  %13 = load i32, ptr @git_gettext_enabled, align 4, !tbaa !128
  %.not4.i13 = icmp eq i32 %13, 0
  br i1 %.not4.i13, label %_.exit, label %_.exit.sink.split

14:                                               ; preds = %1
  %15 = load i32, ptr @git_gettext_enabled, align 4, !tbaa !128
  %.not4.i16 = icmp eq i32 %15, 0
  br i1 %.not4.i16, label %_.exit, label %_.exit.sink.split

16:                                               ; preds = %1
  %17 = load i32, ptr @git_gettext_enabled, align 4, !tbaa !128
  %.not4.i19 = icmp eq i32 %17, 0
  br i1 %.not4.i19, label %_.exit, label %_.exit.sink.split

_.exit.sink.split:                                ; preds = %16, %14, %12, %10, %8, %6, %4, %2
  %.str.207.sink = phi ptr [ @.str.200, %2 ], [ @.str.201, %4 ], [ @.str.202, %6 ], [ @.str.203, %8 ], [ @.str.204, %10 ], [ @.str.205, %12 ], [ @.str.206, %14 ], [ @.str.207, %16 ]
  %18 = tail call ptr @dcgettext(ptr noundef null, ptr noundef nonnull %.str.207.sink, i32 noundef 5) #20
  br label %_.exit

_.exit:                                           ; preds = %_.exit.sink.split, %16, %14, %12, %10, %8, %6, %4, %2, %1
  %.0 = phi ptr [ null, %1 ], [ @.str.200, %2 ], [ @.str.201, %4 ], [ @.str.202, %6 ], [ @.str.203, %8 ], [ @.str.204, %10 ], [ @.str.205, %12 ], [ @.str.206, %14 ], [ @.str.207, %16 ], [ %18, %_.exit.sink.split ]
  ret ptr %.0
}